target datalayout = "e-m:e-p270:32:32-p271:32:32-p272:64:64-i64:64-i128:128-f80:128-n8:16:32:64-S128"
target triple = "x86_64-unknown-linux-gnu"

%"class.std::function.17" = type { %"class.std::_Function_base", ptr }
%"class.std::_Function_base" = type { %"union.std::_Any_data", ptr }
%"union.std::_Any_data" = type { %"union.std::_Nocopy_types" }
%"union.std::_Nocopy_types" = type { { i64, i64 } }
%"class.hermes::vm::GCBase" = type <{ ptr, i32, [4 x i8], i64, %"class.hermes::vm::GCExecTrace", [7 x i8], ptr, ptr, %"class.std::shared_ptr", i32, [4 x i8], %"class.std::function", %"class.std::vector", i8, i8, i8, i8, [4 x i8], %"class.std::chrono::time_point", %"class.std::chrono::duration.0", i64, i64, %"struct.hermes::vm::GCBase::CumulativeHeapStats", %"class.std::__cxx11::basic_string", %"class.std::deque", ptr, %"class.std::recursive_mutex", %"class.hermes::vm::GCBase::IDTracker", [3 x i64], %"class.std::function.17", i32, i8, [3 x i8] }>
%"class.hermes::vm::GCExecTrace" = type { i8 }
%"class.std::shared_ptr" = type { %"class.std::__shared_ptr" }
%"class.std::__shared_ptr" = type { ptr, %"class.std::__shared_count" }
%"class.std::__shared_count" = type { ptr }
%"class.std::function" = type { %"class.std::_Function_base", ptr }
%"class.std::vector" = type { %"struct.std::_Vector_base" }
%"struct.std::_Vector_base" = type { %"struct.std::_Vector_base<hermes::vm::GCAnalyticsEvent, std::allocator<hermes::vm::GCAnalyticsEvent>>::_Vector_impl" }
%"struct.std::_Vector_base<hermes::vm::GCAnalyticsEvent, std::allocator<hermes::vm::GCAnalyticsEvent>>::_Vector_impl" = type { %"struct.std::_Vector_base<hermes::vm::GCAnalyticsEvent, std::allocator<hermes::vm::GCAnalyticsEvent>>::_Vector_impl_data" }
%"struct.std::_Vector_base<hermes::vm::GCAnalyticsEvent, std::allocator<hermes::vm::GCAnalyticsEvent>>::_Vector_impl_data" = type { ptr, ptr, ptr }
%"class.std::chrono::time_point" = type { %"class.std::chrono::duration" }
%"class.std::chrono::duration" = type { i64 }
%"class.std::chrono::duration.0" = type { i64 }
%"struct.hermes::vm::GCBase::CumulativeHeapStats" = type { i32, %"class.hermes::StatsAccumulator", %"class.hermes::StatsAccumulator", i32, %"class.hermes::StatsAccumulator.1", %"class.hermes::StatsAccumulator.1" }
%"class.hermes::StatsAccumulator" = type { i32, double, double, double, double }
%"class.hermes::StatsAccumulator.1" = type { i32, i64, i32, i32, double }
%"class.std::__cxx11::basic_string" = type { %"struct.std::__cxx11::basic_string<char>::_Alloc_hider", i64, %union.anon }
%"struct.std::__cxx11::basic_string<char>::_Alloc_hider" = type { ptr }
%union.anon = type { i64, [8 x i8] }
%"class.std::deque" = type { %"class.std::_Deque_base" }
%"class.std::_Deque_base" = type { %"struct.std::_Deque_base<hermes::vm::WeakRefSlot, std::allocator<hermes::vm::WeakRefSlot>>::_Deque_impl" }
%"struct.std::_Deque_base<hermes::vm::WeakRefSlot, std::allocator<hermes::vm::WeakRefSlot>>::_Deque_impl" = type { %"struct.std::_Deque_base<hermes::vm::WeakRefSlot, std::allocator<hermes::vm::WeakRefSlot>>::_Deque_impl_data" }
%"struct.std::_Deque_base<hermes::vm::WeakRefSlot, std::allocator<hermes::vm::WeakRefSlot>>::_Deque_impl_data" = type { ptr, i64, %"struct.std::_Deque_iterator", %"struct.std::_Deque_iterator" }
%"struct.std::_Deque_iterator" = type { ptr, ptr, ptr, ptr }
%"class.std::recursive_mutex" = type { %"class.std::__recursive_mutex_base" }
%"class.std::__recursive_mutex_base" = type { %union.pthread_mutex_t }
%union.pthread_mutex_t = type { %struct.__pthread_mutex_s }
%struct.__pthread_mutex_s = type { i32, i32, i32, i32, i32, i16, i16, %struct.__pthread_internal_list }
%struct.__pthread_internal_list = type { ptr, ptr }
%"class.hermes::vm::GCBase::IDTracker" = type { %"class.std::recursive_mutex", i32, [4 x i8], %"class.llvh::DenseMap", %"class.llvh::DenseMap", %"class.llvh::DenseMap.8", %"class.llvh::DenseMap.11", %"class.llvh::DenseMap", %"class.llvh::DenseMap.14" }
%"class.llvh::DenseMap.8" = type <{ ptr, i32, i32, i32, [4 x i8] }>
%"class.llvh::DenseMap.11" = type <{ ptr, i32, i32, i32, [4 x i8] }>
%"class.llvh::DenseMap" = type <{ ptr, i32, i32, i32, [4 x i8] }>
%"class.llvh::DenseMap.14" = type <{ ptr, i32, i32, i32, [4 x i8] }>
%class.Ctx = type { %"class.hermes::vm::GCTripwireContext" }
%"class.hermes::vm::GCTripwireContext" = type { ptr }

@_ZTVN6hermes2vm17GCTripwireContextE = external unnamed_addr constant { [6 x ptr] }, align 8

; Function Attrs: mustprogress nounwind uwtable
define linkonce_odr void @_ZN6hermes2vm17GCTripwireContextC2Ev(ptr noundef nonnull align 8 dereferenceable(8) %this) unnamed_addr #0 comdat align 2 {
entry:
  %this.addr = alloca ptr, align 8
  store ptr %this, ptr %this.addr, align 8
  %this1 = load ptr, ptr %this.addr, align 8
  store ptr getelementptr inbounds ({ [6 x ptr] }, ptr @_ZTVN6hermes2vm17GCTripwireContextE, i32 0, i32 0, i32 2), ptr %this1, align 8
  ret void
}

; Function Attrs: mustprogress nounwind uwtable
define linkonce_odr noundef zeroext i1 @_ZNKSt14_Function_base8_M_emptyEv(ptr noundef nonnull align 8 dereferenceable(24) %this) #0 comdat align 2 {
entry:
  %this.addr = alloca ptr, align 8
  store ptr %this, ptr %this.addr, align 8
  %this1 = load ptr, ptr %this.addr, align 8
  %_M_manager = getelementptr inbounds %"class.std::_Function_base", ptr %this1, i32 0, i32 1
  %0 = load ptr, ptr %_M_manager, align 8
  %tobool = icmp ne ptr %0, null
  %lnot = xor i1 %tobool, true
  ret i1 %lnot
}

; Function Attrs: mustprogress nounwind uwtable
define internal void @_ZZN6hermes2vm6GCBase13checkTripwireEmEN3CtxD2Ev(ptr noundef nonnull align 8 dereferenceable(8) %this) unnamed_addr #0 align 2 {
entry:
  %this.addr = alloca ptr, align 8
  store ptr %this, ptr %this.addr, align 8
  %this1 = load ptr, ptr %this.addr, align 8
  call void @_ZN6hermes2vm17GCTripwireContextD2Ev(ptr noundef nonnull align 8 dereferenceable(8) %this1) #14
  ret void
}

; Function Attrs: mustprogress nounwind uwtable
define linkonce_odr void @_ZNKSt8functionIFvRN6hermes2vm17GCTripwireContextEEEclES3_(ptr noundef nonnull align 8 dereferenceable(32) %this, ptr noundef nonnull align 8 dereferenceable(8) %__args) #0 comdat align 2 {
entry:
  %this.addr = alloca ptr, align 8
  %__args.addr = alloca ptr, align 8
  store ptr %this, ptr %this.addr, align 8
  store ptr %__args, ptr %__args.addr, align 8
  %this1 = load ptr, ptr %this.addr, align 8
  %call = call noundef zeroext i1 @_ZNKSt14_Function_base8_M_emptyEv(ptr noundef nonnull align 8 dereferenceable(24) %this1)
  br i1 %call, label %if.then, label %if.end

if.then:                                          ; preds = %entry
  call void @_ZSt25__throw_bad_function_callv() #15
  unreachable

if.end:                                           ; preds = %entry
  %_M_invoker = getelementptr inbounds %"class.std::function.17", ptr %this1, i32 0, i32 1
  %0 = load ptr, ptr %_M_invoker, align 8
  %_M_functor = getelementptr inbounds %"class.std::_Function_base", ptr %this1, i32 0, i32 0
  %1 = load ptr, ptr %__args.addr, align 8
  call void %0(ptr noundef nonnull align 8 dereferenceable(16) %_M_functor, ptr noundef nonnull align 8 dereferenceable(8) %1)
  ret void
}

; Function Attrs: mustprogress nounwind uwtable
define internal void @_ZZN6hermes2vm6GCBase13checkTripwireEmEN3CtxC2Ev(ptr noundef nonnull align 8 dereferenceable(8) %this) unnamed_addr #0 align 2 {
entry:
  %this.addr = alloca ptr, align 8
  store ptr %this, ptr %this.addr, align 8
  %this1 = load ptr, ptr %this.addr, align 8
  call void @_ZN6hermes2vm17GCTripwireContextC2Ev(ptr noundef nonnull align 8 dereferenceable(8) %this1) #14
  store ptr getelementptr inbounds ({ [6 x ptr] }, ptr @_ZTVZN6hermes2vm6GCBase13checkTripwireEmE3Ctx, i32 0, i32 0, i32 2), ptr %this1, align 8
  ret void
}

; Function Attrs: mustprogress nounwind uwtable
define linkonce_odr noundef zeroext i1 @_ZNKSt8functionIFvRN6hermes2vm17GCTripwireContextEEEcvbEv(ptr noundef nonnull align 8 dereferenceable(32) %this) #0 comdat align 2 {
entry:
  %this.addr = alloca ptr, align 8
  store ptr %this, ptr %this.addr, align 8
  %this1 = load ptr, ptr %this.addr, align 8
  %call = call noundef zeroext i1 @_ZNKSt14_Function_base8_M_emptyEv(ptr noundef nonnull align 8 dereferenceable(24) %this1)
  %lnot = xor i1 %call, true
  ret i1 %lnot
}

; Function Attrs: mustprogress nounwind uwtable
define hidden void @_ZN6hermes2vm6GCBase13checkTripwireEm(ptr noundef nonnull align 8 dereferenceable(741) %this, i64 noundef %dataSize) #0 align 2 {
entry:
  %this.addr = alloca ptr, align 8
  %dataSize.addr = alloca i64, align 8
  %ctx = alloca %class.Ctx, align 8
  store ptr %this, ptr %this.addr, align 8
  store i64 %dataSize, ptr %dataSize.addr, align 8
  %this1 = load ptr, ptr %this.addr, align 8
  %tripwireCallback_ = getelementptr inbounds %"class.hermes::vm::GCBase", ptr %this1, i32 0, i32 29
  %call = call noundef zeroext i1 @_ZNKSt8functionIFvRN6hermes2vm17GCTripwireContextEEEcvbEv(ptr noundef nonnull align 8 dereferenceable(32) %tripwireCallback_) #14
  %lnot = xor i1 %call, true
  br i1 %lnot, label %if.then, label %lor.lhs.false

lor.lhs.false:                                    ; preds = %entry
  %0 = load i64, ptr %dataSize.addr, align 8
  %tripwireLimit_ = getelementptr inbounds %"class.hermes::vm::GCBase", ptr %this1, i32 0, i32 30
  %1 = load i32, ptr %tripwireLimit_, align 8
  %conv = zext i32 %1 to i64
  %cmp = icmp ult i64 %0, %conv
  br i1 %cmp, label %if.then, label %lor.lhs.false3

lor.lhs.false3:                                   ; preds = %lor.lhs.false
  %tripwireCalled_ = getelementptr inbounds %"class.hermes::vm::GCBase", ptr %this1, i32 0, i32 31
  %2 = load i8, ptr %tripwireCalled_, align 4
  %tobool = trunc i8 %2 to i1
  br i1 %tobool, label %if.then, label %if.end

if.then:                                          ; preds = %lor.lhs.false3, %lor.lhs.false, %entry
  br label %return

if.end:                                           ; preds = %lor.lhs.false3
  call void @_ZZN6hermes2vm6GCBase13checkTripwireEmEN3CtxC2Ev(ptr noundef nonnull align 8 dereferenceable(8) %ctx) #14
  %tripwireCalled_4 = getelementptr inbounds %"class.hermes::vm::GCBase", ptr %this1, i32 0, i32 31
  store i8 1, ptr %tripwireCalled_4, align 4
  %tripwireCallback_5 = getelementptr inbounds %"class.hermes::vm::GCBase", ptr %this1, i32 0, i32 29
  call void @_ZNKSt8functionIFvRN6hermes2vm17GCTripwireContextEEEclES3_(ptr noundef nonnull align 8 dereferenceable(32) %tripwireCallback_5, ptr noundef nonnull align 8 dereferenceable(8) %ctx)
  call void @_ZZN6hermes2vm6GCBase13checkTripwireEmEN3CtxD2Ev(ptr noundef nonnull align 8 dereferenceable(8) %ctx) #14
  br label %return

return:                                           ; preds = %if.end, %if.then
  ret void
}