; Function Attrs: mustprogress nounwind uwtable
define hidden void @_ZN6hermes2vm6GCBase13checkTripwireEm(ptr noundef nonnull align 8 dereferenceable(741) %this, i64 noundef %dataSize) local_unnamed_addr #0 align 2 {
entry:
  %ctx = alloca %class.Ctx, align 8
  %tripwireCallback_ = getelementptr inbounds i8, ptr %this, i64 704
  %_M_manager.i.i = getelementptr inbounds i8, ptr %this, i64 720
  %0 = load ptr, ptr %_M_manager.i.i, align 8
  %tobool.not.i.i.not = icmp eq ptr %0, null
  %tripwireLimit_ = getelementptr inbounds i8, ptr %this, i64 736
  %1 = load i32, ptr %tripwireLimit_, align 8
  %conv = zext i32 %1 to i64
  %cmp = icmp ugt i64 %conv, %dataSize
  %or.cond = select i1 %tobool.not.i.i.not, i1 true, i1 %cmp
  br i1 %or.cond, label %return, label %lor.lhs.false3

lor.lhs.false3:                                   ; preds = %entry
  %tripwireCalled_ = getelementptr inbounds i8, ptr %this, i64 740
  %2 = load i8, ptr %tripwireCalled_, align 4
  %3 = and i8 %2, 1
  %tobool.not = icmp eq i8 %3, 0
  br i1 %tobool.not, label %_ZNKSt8functionIFvRN6hermes2vm17GCTripwireContextEEEclES3_.exit, label %return

_ZNKSt8functionIFvRN6hermes2vm17GCTripwireContextEEEclES3_.exit: ; preds = %lor.lhs.false3
  store ptr getelementptr inbounds ({ [6 x ptr] }, ptr @_ZTVZN6hermes2vm6GCBase13checkTripwireEmE3Ctx, i64 0, i32 0, i64 2), ptr %ctx, align 8
  store i8 1, ptr %tripwireCalled_, align 4
  %_M_invoker.i = getelementptr inbounds i8, ptr %this, i64 728
  %4 = load ptr, ptr %_M_invoker.i, align 8
  call void %4(ptr noundef nonnull align 8 dereferenceable(16) %tripwireCallback_, ptr noundef nonnull align 8 dereferenceable(8) %ctx) #27
  call void @_ZN6hermes2vm17GCTripwireContextD2Ev(ptr noundef nonnull align 8 dereferenceable(8) %ctx) #27
  br label %return

return:                                           ; preds = %entry, %lor.lhs.false3, %_ZNKSt8functionIFvRN6hermes2vm17GCTripwireContextEEEclES3_.exit
  ret void
}